; ModuleID = 'source-C-CXX/23/2658.c'
source_filename = "source-C-CXX/23/2658.c"
target datalayout = "e-m:e-p270:32:32-p271:32:32-p272:64:64-i64:64-f80:128-n8:16:32:64-S128"
target triple = "x86_64-pc-linux-gnu"

@.str = private unnamed_addr constant [4 x i8] c"%d\0A\00", align 1
@.str.1 = private unnamed_addr constant [3 x i8] c"%s\00", align 1
@.str.2 = private unnamed_addr constant [6 x i8] c"%s\0A%s\00", align 1

; Function Attrs: nofree nounwind sspstrong uwtable
define dso_local i32 @main() local_unnamed_addr #0 {
  %1 = alloca i32, align 4
  %2 = alloca [203 x [40 x i8]], align 16
  %3 = bitcast i32* %1 to i8*
  call void @llvm.lifetime.start.p0i8(i64 4, i8* nonnull %3) #4
  %4 = getelementptr inbounds [203 x [40 x i8]], [203 x [40 x i8]]* %2, i64 0, i64 0, i64 0
  call void @llvm.lifetime.start.p0i8(i64 8120, i8* nonnull %4) #4
  %5 = call i32 (i8*, ...) @__isoc99_scanf(i8* getelementptr inbounds ([4 x i8], [4 x i8]* @.str, i64 0, i64 0), i32* nonnull %1)
  %6 = load i32, i32* %1, align 4, !tbaa !5
  %7 = icmp slt i32 %6, 1
  br i1 %7, label %42, label %13

8:                                                ; preds = %13
  %9 = icmp slt i32 %18, 1
  br i1 %9, label %42, label %10

10:                                               ; preds = %8
  %11 = add nuw i32 %18, 1
  %12 = zext i32 %11 to i64
  br label %21

13:                                               ; preds = %0, %13
  %14 = phi i64 [ %17, %13 ], [ 1, %0 ]
  %15 = getelementptr inbounds [203 x [40 x i8]], [203 x [40 x i8]]* %2, i64 0, i64 %14, i64 0
  %16 = call i32 (i8*, ...) @__isoc99_scanf(i8* getelementptr inbounds ([3 x i8], [3 x i8]* @.str.1, i64 0, i64 0), i8* nonnull %15)
  %17 = add nuw nsw i64 %14, 1
  %18 = load i32, i32* %1, align 4, !tbaa !5
  %19 = sext i32 %18 to i64
  %20 = icmp slt i64 %14, %19
  br i1 %20, label %13, label %8, !llvm.loop !9

21:                                               ; preds = %10, %21
  %22 = phi i64 [ 1, %10 ], [ %37, %21 ]
  %23 = phi i32 [ undef, %10 ], [ %36, %21 ]
  %24 = phi i32 [ 70, %10 ], [ %35, %21 ]
  %25 = phi i32 [ undef, %10 ], [ %33, %21 ]
  %26 = phi i32 [ 0, %10 ], [ %31, %21 ]
  %27 = getelementptr inbounds [203 x [40 x i8]], [203 x [40 x i8]]* %2, i64 0, i64 %22, i64 0
  %28 = call i64 @strlen(i8* noundef nonnull %27) #5
  %29 = trunc i64 %28 to i32
  %30 = icmp slt i32 %26, %29
  %31 = select i1 %30, i32 %29, i32 %26
  %32 = trunc i64 %22 to i32
  %33 = select i1 %30, i32 %32, i32 %25
  %34 = icmp sgt i32 %24, %29
  %35 = select i1 %34, i32 %29, i32 %24
  %36 = select i1 %34, i32 %32, i32 %23
  %37 = add nuw nsw i64 %22, 1
  %38 = icmp eq i64 %37, %12
  br i1 %38, label %39, label %21, !llvm.loop !11

39:                                               ; preds = %21
  %40 = sext i32 %33 to i64
  %41 = sext i32 %36 to i64
  br label %42

42:                                               ; preds = %0, %39, %8
  %43 = phi i64 [ 0, %8 ], [ %40, %39 ], [ 0, %0 ]
  %44 = phi i64 [ 0, %8 ], [ %41, %39 ], [ 0, %0 ]
  %45 = getelementptr inbounds [203 x [40 x i8]], [203 x [40 x i8]]* %2, i64 0, i64 %43, i64 0
  %46 = getelementptr inbounds [203 x [40 x i8]], [203 x [40 x i8]]* %2, i64 0, i64 %44, i64 0
  %47 = call i32 (i8*, ...) @printf(i8* nonnull dereferenceable(1) getelementptr inbounds ([6 x i8], [6 x i8]* @.str.2, i64 0, i64 0), i8* nonnull %45, i8* nonnull %46)
  call void @llvm.lifetime.end.p0i8(i64 8120, i8* nonnull %4) #4
  call void @llvm.lifetime.end.p0i8(i64 4, i8* nonnull %3) #4
  ret i32 0
}

; Function Attrs: argmemonly mustprogress nofree nosync nounwind willreturn
declare void @llvm.lifetime.start.p0i8(i64 immarg, i8* nocapture) #1

; Function Attrs: nofree nounwind
declare noundef i32 @__isoc99_scanf(i8* nocapture noundef readonly, ...) local_unnamed_addr #2

; Function Attrs: argmemonly mustprogress nofree nounwind readonly willreturn
declare i64 @strlen(i8* nocapture) local_unnamed_addr #3

; Function Attrs: nofree nounwind
declare noundef i32 @printf(i8* nocapture noundef readonly, ...) local_unnamed_addr #2

; Function Attrs: argmemonly mustprogress nofree nosync nounwind willreturn
declare void @llvm.lifetime.end.p0i8(i64 immarg, i8* nocapture) #1


!llvm.module.flags = !{!0, !1, !2, !3}
!llvm.ident = !{!4}

!0 = !{i32 1, !"wchar_size", i32 4}
!1 = !{i32 7, !"PIC Level", i32 2}
!2 = !{i32 7, !"PIE Level", i32 2}
!3 = !{i32 7, !"uwtable", i32 1}
!4 = !{!"clang version 13.0.0"}
!5 = !{!6, !6, i64 0}
!6 = !{!"int", !7, i64 0}
!7 = !{!"omnipotent char", !8, i64 0}
!8 = !{!"Simple C/C++ TBAA"}
!9 = distinct !{!9, !10}
!10 = !{!"llvm.loop.mustprogress"}
!11 = distinct !{!11, !10}
